target datalayout = "e-m:e-p270:32:32-p271:32:32-p272:64:64-i64:64-i128:128-f80:128-n8:16:32:64-S128"
target triple = "x86_64-pc-linux-gnu"

%struct.BuildCtx = type { ptr, i32, ptr, ptr, ptr, ptr, i64, i32, i32, i32, i32, i32, ptr, ptr, ptr, ptr, ptr, ptr, ptr, ptr, ptr, [200 x %struct.BuildReloc] }
%struct.BuildReloc = type { i32, i32, i32 }

@modstate = internal global i32 0, align 4
@obuf = internal global [8192 x i8] zeroinitializer, align 16
@optr = internal global ptr null, align 8
@modname = internal global [80 x i8] zeroinitializer, align 16
@.str.69 = private unnamed_addr constant [19 x i8] c"  (lua_CFunction)0\00", align 1
@.str.70 = private unnamed_addr constant [5 x i8] c"\0A};\0A\00", align 1
@.str.71 = private unnamed_addr constant [33 x i8] c"static const uint8_t %s%s[] = {\0A\00", align 1
@.str.72 = private unnamed_addr constant [13 x i8] c"lj_lib_init_\00", align 1
@.str.73 = private unnamed_addr constant [4 x i8] c"%d,\00", align 1
@.str.74 = private unnamed_addr constant [4 x i8] c"%s\0A\00", align 1
@.str.75 = private unnamed_addr constant [17 x i8] c"%s%d\0A};\0A#endif\0A\0A\00", align 1

; Function Attrs: nounwind uwtable
define internal void @libdef_endmodule(ptr noundef %0) #0 {
  %2 = alloca ptr, align 8
  %3 = alloca [80 x i8], align 16
  %4 = alloca ptr, align 8
  %5 = alloca i32, align 4
  store ptr %0, ptr %2, align 8, !tbaa !4
  %6 = load i32, ptr @modstate, align 4, !tbaa !20
  %7 = icmp ne i32 %6, 0
  br i1 %7, label %8, label %60

8:                                                ; preds = %1
  call void @llvm.lifetime.start.p0(i64 80, ptr %3) #9
  call void @llvm.lifetime.start.p0(i64 8, ptr %4) #9
  call void @llvm.lifetime.start.p0(i64 4, ptr %5) #9
  %9 = load i32, ptr @modstate, align 4, !tbaa !20
  %10 = icmp eq i32 %9, 1
  br i1 %10, label %11, label %16

11:                                               ; preds = %8
  %12 = load ptr, ptr %2, align 8, !tbaa !4
  %13 = getelementptr inbounds nuw %struct.BuildCtx, ptr %12, i32 0, i32 2
  %14 = load ptr, ptr %13, align 8, !tbaa !19
  %15 = call i32 (ptr, ptr, ...) @fprintf(ptr noundef %14, ptr noundef @.str.69) #9
  br label %16

16:                                               ; preds = %11, %8
  %17 = load ptr, ptr %2, align 8, !tbaa !4
  %18 = getelementptr inbounds nuw %struct.BuildCtx, ptr %17, i32 0, i32 2
  %19 = load ptr, ptr %18, align 8, !tbaa !19
  %20 = call i32 (ptr, ptr, ...) @fprintf(ptr noundef %19, ptr noundef @.str.70) #9
  %21 = load ptr, ptr %2, align 8, !tbaa !4
  %22 = getelementptr inbounds nuw %struct.BuildCtx, ptr %21, i32 0, i32 2
  %23 = load ptr, ptr %22, align 8, !tbaa !19
  %24 = call i32 (ptr, ptr, ...) @fprintf(ptr noundef %23, ptr noundef @.str.71, ptr noundef @.str.72, ptr noundef @modname) #9
  %25 = getelementptr inbounds [80 x i8], ptr %3, i64 0, i64 0
  store i8 0, ptr %25, align 16, !tbaa !23
  store i32 0, ptr %5, align 4, !tbaa !20
  store ptr @obuf, ptr %4, align 8, !tbaa !22
  br label %26

26:                                               ; preds = %51, %16
  %27 = load ptr, ptr %4, align 8, !tbaa !22
  %28 = load ptr, ptr @optr, align 8, !tbaa !22
  %29 = icmp ult ptr %27, %28
  br i1 %29, label %30, label %54

30:                                               ; preds = %26
  %31 = getelementptr inbounds [80 x i8], ptr %3, i64 0, i64 0
  %32 = load i32, ptr %5, align 4, !tbaa !20
  %33 = sext i32 %32 to i64
  %34 = getelementptr inbounds i8, ptr %31, i64 %33
  %35 = load ptr, ptr %4, align 8, !tbaa !22
  %36 = load i8, ptr %35, align 1, !tbaa !23
  %37 = zext i8 %36 to i32
  %38 = call i32 (ptr, ptr, ...) @sprintf(ptr noundef %34, ptr noundef @.str.73, i32 noundef %37) #9
  %39 = load i32, ptr %5, align 4, !tbaa !20
  %40 = add nsw i32 %39, %38
  store i32 %40, ptr %5, align 4, !tbaa !20
  %41 = load i32, ptr %5, align 4, !tbaa !20
  %42 = icmp sge i32 %41, 75
  br i1 %42, label %43, label %50

43:                                               ; preds = %30
  %44 = load ptr, ptr %2, align 8, !tbaa !4
  %45 = getelementptr inbounds nuw %struct.BuildCtx, ptr %44, i32 0, i32 2
  %46 = load ptr, ptr %45, align 8, !tbaa !19
  %47 = getelementptr inbounds [80 x i8], ptr %3, i64 0, i64 0
  %48 = call i32 (ptr, ptr, ...) @fprintf(ptr noundef %46, ptr noundef @.str.74, ptr noundef %47) #9
  store i32 0, ptr %5, align 4, !tbaa !20
  %49 = getelementptr inbounds [80 x i8], ptr %3, i64 0, i64 0
  store i8 0, ptr %49, align 16, !tbaa !23
  br label %50

50:                                               ; preds = %43, %30
  br label %51

51:                                               ; preds = %50
  %52 = load ptr, ptr %4, align 8, !tbaa !22
  %53 = getelementptr inbounds nuw i8, ptr %52, i32 1
  store ptr %53, ptr %4, align 8, !tbaa !22
  br label %26, !llvm.loop !41

54:                                               ; preds = %26
  %55 = load ptr, ptr %2, align 8, !tbaa !4
  %56 = getelementptr inbounds nuw %struct.BuildCtx, ptr %55, i32 0, i32 2
  %57 = load ptr, ptr %56, align 8, !tbaa !19
  %58 = getelementptr inbounds [80 x i8], ptr %3, i64 0, i64 0
  %59 = call i32 (ptr, ptr, ...) @fprintf(ptr noundef %57, ptr noundef @.str.75, ptr noundef %58, i32 noundef 255) #9
  call void @llvm.lifetime.end.p0(i64 4, ptr %5) #9
  call void @llvm.lifetime.end.p0(i64 8, ptr %4) #9
  call void @llvm.lifetime.end.p0(i64 80, ptr %3) #9
  br label %60

60:                                               ; preds = %54, %1
  ret void
}