; Function Attrs: nofree nounwind uwtable
define internal fastcc void @libdef_endmodule(ptr noundef readonly captures(none) %0) unnamed_addr #7 {
  %2 = alloca [80 x i8], align 16
  %3 = load i32, ptr @modstate, align 4, !tbaa !18
  %.not = icmp eq i32 %3, 0
  br i1 %.not, label %34, label %4

4:                                                ; preds = %1
  call void @llvm.lifetime.start.p0(i64 80, ptr nonnull %2) #14
  %5 = icmp eq i32 %3, 1
  br i1 %5, label %6, label %10

6:                                                ; preds = %4
  %7 = getelementptr inbounds nuw i8, ptr %0, i64 16
  %8 = load ptr, ptr %7, align 8, !tbaa !17
  %9 = tail call i64 @fwrite(ptr nonnull @.str.69, i64 18, i64 1, ptr %8)
  br label %10

10:                                               ; preds = %6, %4
  %11 = getelementptr inbounds nuw i8, ptr %0, i64 16
  %12 = load ptr, ptr %11, align 8, !tbaa !17
  %13 = tail call i64 @fwrite(ptr nonnull @.str.70, i64 4, i64 1, ptr %12)
  %14 = load ptr, ptr %11, align 8, !tbaa !17
  %15 = tail call i32 (ptr, ptr, ...) @fprintf(ptr noundef %14, ptr noundef nonnull @.str.71, ptr noundef nonnull @.str.72, ptr noundef nonnull @modname) #14
  store i8 0, ptr %2, align 16, !tbaa !21
  %16 = load ptr, ptr @optr, align 8, !tbaa !20
  %17 = icmp ugt ptr %16, @obuf
  br i1 %17, label %.lr.ph, label %._crit_edge

.lr.ph:                                           ; preds = %10, %28
  %.013 = phi i32 [ %.1, %28 ], [ 0, %10 ]
  %.01012 = phi ptr [ %29, %28 ], [ @obuf, %10 ]
  %18 = sext i32 %.013 to i64
  %19 = getelementptr inbounds i8, ptr %2, i64 %18
  %20 = load i8, ptr %.01012, align 1, !tbaa !21
  %21 = zext i8 %20 to i32
  %22 = call i32 (ptr, ptr, ...) @sprintf(ptr noundef nonnull dereferenceable(1) %19, ptr noundef nonnull dereferenceable(1) @.str.73, i32 noundef %21) #14
  %23 = add nsw i32 %22, %.013
  %24 = icmp sgt i32 %23, 74
  br i1 %24, label %25, label %28

25:                                               ; preds = %.lr.ph
  %26 = load ptr, ptr %11, align 8, !tbaa !17
  %27 = call i32 (ptr, ptr, ...) @fprintf(ptr noundef %26, ptr noundef nonnull @.str.74, ptr noundef nonnull %2) #14
  store i8 0, ptr %2, align 16, !tbaa !21
  br label %28

28:                                               ; preds = %.lr.ph, %25
  %.1 = phi i32 [ 0, %25 ], [ %23, %.lr.ph ]
  %29 = getelementptr inbounds nuw i8, ptr %.01012, i64 1
  %30 = load ptr, ptr @optr, align 8, !tbaa !20
  %31 = icmp ult ptr %29, %30
  br i1 %31, label %.lr.ph, label %._crit_edge, !llvm.loop !35

._crit_edge:                                      ; preds = %28, %10
  %32 = load ptr, ptr %11, align 8, !tbaa !17
  %33 = call i32 (ptr, ptr, ...) @fprintf(ptr noundef %32, ptr noundef nonnull @.str.75, ptr noundef nonnull %2, i32 noundef 255) #14
  call void @llvm.lifetime.end.p0(i64 80, ptr nonnull %2) #14
  br label %34

34:                                               ; preds = %._crit_edge, %1
  ret void
}